target datalayout = "e-m:e-p270:32:32-p271:32:32-p272:64:64-i64:64-i128:128-f80:128-n8:16:32:64-S128"
target triple = "x86_64-pc-linux-gnu"

; Function Attrs: nounwind willreturn memory(read) uwtable
define i32 @av_crc(ptr noundef %0, i32 noundef %1, ptr noundef %2, i64 noundef %3) #5 {
  %5 = alloca ptr, align 8
  %6 = alloca i32, align 4
  %7 = alloca ptr, align 8
  %8 = alloca i64, align 8
  %9 = alloca ptr, align 8
  store ptr %0, ptr %5, align 8, !tbaa !4
  store i32 %1, ptr %6, align 4, !tbaa !9
  store ptr %2, ptr %7, align 8, !tbaa !17
  store i64 %3, ptr %8, align 8, !tbaa !19
  call void @llvm.lifetime.start.p0(i64 8, ptr %9) #6
  %10 = load ptr, ptr %7, align 8, !tbaa !17
  %11 = load i64, ptr %8, align 8, !tbaa !19
  %12 = getelementptr inbounds nuw i8, ptr %10, i64 %11
  store ptr %12, ptr %9, align 8, !tbaa !17
  %13 = load ptr, ptr %5, align 8, !tbaa !4
  %14 = getelementptr inbounds i32, ptr %13, i64 256
  %15 = load i32, ptr %14, align 4, !tbaa !9
  %16 = icmp ne i32 %15, 0
  br i1 %16, label %92, label %17

17:                                               ; preds = %4
  br label %18

18:                                               ; preds = %29, %17
  %19 = load ptr, ptr %7, align 8, !tbaa !17
  %20 = ptrtoint ptr %19 to i64
  %21 = and i64 %20, 3
  %22 = icmp ne i64 %21, 0
  br i1 %22, label %23, label %27

23:                                               ; preds = %18
  %24 = load ptr, ptr %7, align 8, !tbaa !17
  %25 = load ptr, ptr %9, align 8, !tbaa !17
  %26 = icmp ult ptr %24, %25
  br label %27

27:                                               ; preds = %23, %18
  %28 = phi i1 [ false, %18 ], [ %26, %23 ]
  br i1 %28, label %29, label %45

29:                                               ; preds = %27
  %30 = load ptr, ptr %5, align 8, !tbaa !4
  %31 = load i32, ptr %6, align 4, !tbaa !9
  %32 = trunc i32 %31 to i8
  %33 = zext i8 %32 to i32
  %34 = load ptr, ptr %7, align 8, !tbaa !17
  %35 = getelementptr inbounds nuw i8, ptr %34, i32 1
  store ptr %35, ptr %7, align 8, !tbaa !17
  %36 = load i8, ptr %34, align 1, !tbaa !21
  %37 = zext i8 %36 to i32
  %38 = xor i32 %33, %37
  %39 = sext i32 %38 to i64
  %40 = getelementptr inbounds i32, ptr %30, i64 %39
  %41 = load i32, ptr %40, align 4, !tbaa !9
  %42 = load i32, ptr %6, align 4, !tbaa !9
  %43 = lshr i32 %42, 8
  %44 = xor i32 %41, %43
  store i32 %44, ptr %6, align 4, !tbaa !9
  br label %18, !llvm.loop !22

45:                                               ; preds = %27
  br label %46

46:                                               ; preds = %51, %45
  %47 = load ptr, ptr %7, align 8, !tbaa !17
  %48 = load ptr, ptr %9, align 8, !tbaa !17
  %49 = getelementptr inbounds i8, ptr %48, i64 -3
  %50 = icmp ult ptr %47, %49
  br i1 %50, label %51, label %91

51:                                               ; preds = %46
  %52 = load ptr, ptr %7, align 8, !tbaa !17
  %53 = load i32, ptr %52, align 4, !tbaa !9
  %54 = load i32, ptr %6, align 4, !tbaa !9
  %55 = xor i32 %54, %53
  store i32 %55, ptr %6, align 4, !tbaa !9
  %56 = load ptr, ptr %7, align 8, !tbaa !17
  %57 = getelementptr inbounds i8, ptr %56, i64 4
  store ptr %57, ptr %7, align 8, !tbaa !17
  %58 = load ptr, ptr %5, align 8, !tbaa !4
  %59 = load i32, ptr %6, align 4, !tbaa !9
  %60 = and i32 %59, 255
  %61 = add i32 768, %60
  %62 = zext i32 %61 to i64
  %63 = getelementptr inbounds nuw i32, ptr %58, i64 %62
  %64 = load i32, ptr %63, align 4, !tbaa !9
  %65 = load ptr, ptr %5, align 8, !tbaa !4
  %66 = load i32, ptr %6, align 4, !tbaa !9
  %67 = lshr i32 %66, 8
  %68 = and i32 %67, 255
  %69 = add i32 512, %68
  %70 = zext i32 %69 to i64
  %71 = getelementptr inbounds nuw i32, ptr %65, i64 %70
  %72 = load i32, ptr %71, align 4, !tbaa !9
  %73 = xor i32 %64, %72
  %74 = load ptr, ptr %5, align 8, !tbaa !4
  %75 = load i32, ptr %6, align 4, !tbaa !9
  %76 = lshr i32 %75, 16
  %77 = and i32 %76, 255
  %78 = add i32 256, %77
  %79 = zext i32 %78 to i64
  %80 = getelementptr inbounds nuw i32, ptr %74, i64 %79
  %81 = load i32, ptr %80, align 4, !tbaa !9
  %82 = xor i32 %73, %81
  %83 = load ptr, ptr %5, align 8, !tbaa !4
  %84 = load i32, ptr %6, align 4, !tbaa !9
  %85 = lshr i32 %84, 24
  %86 = add i32 0, %85
  %87 = zext i32 %86 to i64
  %88 = getelementptr inbounds nuw i32, ptr %83, i64 %87
  %89 = load i32, ptr %88, align 4, !tbaa !9
  %90 = xor i32 %82, %89
  store i32 %90, ptr %6, align 4, !tbaa !9
  br label %46, !llvm.loop !23

91:                                               ; preds = %46
  br label %92

92:                                               ; preds = %91, %4
  br label %93

93:                                               ; preds = %97, %92
  %94 = load ptr, ptr %7, align 8, !tbaa !17
  %95 = load ptr, ptr %9, align 8, !tbaa !17
  %96 = icmp ult ptr %94, %95
  br i1 %96, label %97, label %113

97:                                               ; preds = %93
  %98 = load ptr, ptr %5, align 8, !tbaa !4
  %99 = load i32, ptr %6, align 4, !tbaa !9
  %100 = trunc i32 %99 to i8
  %101 = zext i8 %100 to i32
  %102 = load ptr, ptr %7, align 8, !tbaa !17
  %103 = getelementptr inbounds nuw i8, ptr %102, i32 1
  store ptr %103, ptr %7, align 8, !tbaa !17
  %104 = load i8, ptr %102, align 1, !tbaa !21
  %105 = zext i8 %104 to i32
  %106 = xor i32 %101, %105
  %107 = sext i32 %106 to i64
  %108 = getelementptr inbounds i32, ptr %98, i64 %107
  %109 = load i32, ptr %108, align 4, !tbaa !9
  %110 = load i32, ptr %6, align 4, !tbaa !9
  %111 = lshr i32 %110, 8
  %112 = xor i32 %109, %111
  store i32 %112, ptr %6, align 4, !tbaa !9
  br label %93, !llvm.loop !24

113:                                              ; preds = %93
  %114 = load i32, ptr %6, align 4, !tbaa !9
  call void @llvm.lifetime.end.p0(i64 8, ptr %9) #6
  ret i32 %114
}