; Function Attrs: mustprogress nofree norecurse nosync nounwind willreturn memory(argmem: read) uwtable
define i32 @av_crc(ptr noundef readonly captures(none) %0, i32 noundef %1, ptr noundef %2, i64 noundef %3) local_unnamed_addr #5 {
  %5 = getelementptr inbounds nuw i8, ptr %2, i64 %3
  %6 = getelementptr inbounds nuw i8, ptr %0, i64 1024
  %7 = load i32, ptr %6, align 4, !tbaa !4
  %.not = icmp eq i32 %7, 0
  br i1 %.not, label %.preheader33, label %.loopexit

.preheader33:                                     ; preds = %4
  %8 = ptrtoint ptr %2 to i64
  %9 = and i64 %8, 3
  %10 = icmp ne i64 %9, 0
  %11 = icmp ne i64 %3, 0
  %12 = and i1 %10, %11
  br i1 %12, label %.lr.ph, label %.preheader

.preheader:                                       ; preds = %.lr.ph, %.preheader33
  %.130.lcssa = phi ptr [ %2, %.preheader33 ], [ %16, %.lr.ph ]
  %.1.lcssa = phi i32 [ %1, %.preheader33 ], [ %24, %.lr.ph ]
  %13 = getelementptr inbounds i8, ptr %5, i64 -3
  %invariant.gep = getelementptr inbounds nuw i8, ptr %0, i64 3072
  %invariant.gep37 = getelementptr inbounds nuw i8, ptr %0, i64 2048
  %14 = icmp ult ptr %.130.lcssa, %13
  br i1 %14, label %.lr.ph43, label %.loopexit

.lr.ph:                                           ; preds = %.preheader33, %.lr.ph
  %.135 = phi i32 [ %24, %.lr.ph ], [ %1, %.preheader33 ]
  %.13034 = phi ptr [ %16, %.lr.ph ], [ %2, %.preheader33 ]
  %15 = and i32 %.135, 255
  %16 = getelementptr inbounds nuw i8, ptr %.13034, i64 1
  %17 = load i8, ptr %.13034, align 1, !tbaa !14
  %18 = zext i8 %17 to i32
  %19 = xor i32 %15, %18
  %20 = zext nneg i32 %19 to i64
  %21 = getelementptr inbounds nuw i32, ptr %0, i64 %20
  %22 = load i32, ptr %21, align 4, !tbaa !4
  %23 = lshr i32 %.135, 8
  %24 = xor i32 %22, %23
  %25 = ptrtoint ptr %16 to i64
  %26 = and i64 %25, 3
  %27 = icmp ne i64 %26, 0
  %28 = icmp ult ptr %16, %5
  %29 = select i1 %27, i1 %28, i1 false
  br i1 %29, label %.lr.ph, label %.preheader, !llvm.loop !15

.lr.ph43:                                         ; preds = %.preheader, %.lr.ph43
  %.242 = phi i32 [ %50, %.lr.ph43 ], [ %.1.lcssa, %.preheader ]
  %.23141 = phi ptr [ %32, %.lr.ph43 ], [ %.130.lcssa, %.preheader ]
  %30 = load i32, ptr %.23141, align 4, !tbaa !4
  %31 = xor i32 %30, %.242
  %32 = getelementptr inbounds nuw i8, ptr %.23141, i64 4
  %33 = and i32 %31, 255
  %34 = zext nneg i32 %33 to i64
  %gep = getelementptr inbounds nuw i32, ptr %invariant.gep, i64 %34
  %35 = load i32, ptr %gep, align 4, !tbaa !4
  %36 = lshr i32 %31, 8
  %37 = and i32 %36, 255
  %38 = zext nneg i32 %37 to i64
  %gep38 = getelementptr inbounds nuw i32, ptr %invariant.gep37, i64 %38
  %39 = load i32, ptr %gep38, align 4, !tbaa !4
  %40 = xor i32 %39, %35
  %41 = lshr i32 %31, 16
  %42 = and i32 %41, 255
  %43 = zext nneg i32 %42 to i64
  %gep40 = getelementptr inbounds nuw i32, ptr %6, i64 %43
  %44 = load i32, ptr %gep40, align 4, !tbaa !4
  %45 = xor i32 %40, %44
  %46 = lshr i32 %31, 24
  %47 = zext nneg i32 %46 to i64
  %48 = getelementptr inbounds nuw i32, ptr %0, i64 %47
  %49 = load i32, ptr %48, align 4, !tbaa !4
  %50 = xor i32 %45, %49
  %51 = icmp ult ptr %32, %13
  br i1 %51, label %.lr.ph43, label %.loopexit, !llvm.loop !16

.loopexit:                                        ; preds = %.lr.ph43, %.preheader, %4
  %.029 = phi ptr [ %2, %4 ], [ %.130.lcssa, %.preheader ], [ %32, %.lr.ph43 ]
  %.0 = phi i32 [ %1, %4 ], [ %.1.lcssa, %.preheader ], [ %50, %.lr.ph43 ]
  %52 = icmp ult ptr %.029, %5
  br i1 %52, label %.lr.ph48, label %._crit_edge

.lr.ph48:                                         ; preds = %.loopexit, %.lr.ph48
  %.347 = phi i32 [ %62, %.lr.ph48 ], [ %.0, %.loopexit ]
  %.33246 = phi ptr [ %54, %.lr.ph48 ], [ %.029, %.loopexit ]
  %53 = and i32 %.347, 255
  %54 = getelementptr inbounds nuw i8, ptr %.33246, i64 1
  %55 = load i8, ptr %.33246, align 1, !tbaa !14
  %56 = zext i8 %55 to i32
  %57 = xor i32 %53, %56
  %58 = zext nneg i32 %57 to i64
  %59 = getelementptr inbounds nuw i32, ptr %0, i64 %58
  %60 = load i32, ptr %59, align 4, !tbaa !4
  %61 = lshr i32 %.347, 8
  %62 = xor i32 %60, %61
  %63 = icmp ult ptr %54, %5
  br i1 %63, label %.lr.ph48, label %._crit_edge, !llvm.loop !17

._crit_edge:                                      ; preds = %.lr.ph48, %.loopexit
  %.3.lcssa = phi i32 [ %.0, %.loopexit ], [ %62, %.lr.ph48 ]
  ret i32 %.3.lcssa
}